target datalayout = "e-m:e-p270:32:32-p271:32:32-p272:64:64-i64:64-i128:128-f80:128-n8:16:32:64-S128"
target triple = "x86_64-pc-linux-gnu"

%struct.darktable_t = type { %struct.dt_codepath_t, i32, i32, ptr, ptr, ptr, ptr, ptr, ptr, ptr, ptr, ptr, ptr, ptr, ptr, ptr, ptr, ptr, ptr, ptr, ptr, ptr, ptr, ptr, ptr, ptr, ptr, ptr, ptr, ptr, [64 x %struct.dt_pthread_mutex_t], %struct.dt_pthread_mutex_t, %struct.dt_pthread_mutex_t, %struct.dt_pthread_mutex_t, %struct.dt_pthread_mutex_t, %struct.dt_pthread_mutex_t, ptr, ptr, ptr, ptr, ptr, ptr, ptr, ptr, ptr, ptr, ptr, ptr, ptr, %struct.dt_lua_state_t, ptr, double, ptr, i32, [47 x i32], i32, i32, ptr, ptr, %struct.dt_sys_resources_t, %struct.dt_backthumb_t, %struct.dt_gimp_t }
%struct.dt_codepath_t = type { i8, [3 x i8] }
%struct.dt_pthread_mutex_t = type { %union.pthread_mutex_t }
%union.pthread_mutex_t = type { %struct.__pthread_mutex_s }
%struct.__pthread_mutex_s = type { i32, i32, i32, i32, i32, i16, i16, %struct.__pthread_internal_list }
%struct.__pthread_internal_list = type { ptr, ptr }
%struct.dt_lua_state_t = type { i32 }
%struct.dt_sys_resources_t = type { i64, i64, ptr, ptr, i32 }
%struct.dt_backthumb_t = type { double, double, i32, i32, i32, i32 }
%struct.dt_gimp_t = type { i32, ptr, ptr, i32, i32 }
%struct.dt_camctl_t = type { %struct.dt_pthread_mutex_t, %struct.dt_pthread_mutex_t, i64, ptr, ptr, ptr, ptr, ptr, ptr, ptr, ptr, i32, i32, i32 }
%struct.dt_camera_t = type { ptr, ptr, %struct.CameraText, ptr, ptr, %struct.dt_pthread_mutex_t, i32, i32, i32, i32, i32, i32, i32, i32, i32, ptr, %struct.dt_pthread_mutex_t, ptr, %struct.anon, ptr, ptr, i32, i32, i32, i32, ptr, i32, i32, i32, i32, i32, i32, i32, i32, i64, %struct.dt_pthread_mutex_t, %struct.dt_pthread_mutex_t }
%struct.CameraText = type { [32768 x i8] }
%struct.anon = type { ptr, i32 }
%struct._GList = type { ptr, ptr, ptr }
%struct.dt_camctl_listener_t = type { ptr, ptr, ptr, ptr, ptr, ptr, ptr, ptr, ptr, ptr, ptr }

@darktable = external global %struct.darktable_t, align 8
@.str.78 = private unnamed_addr constant [49 x i8] c"[camera_control] camera control un-locked for %s\00", align 1
@.str.79 = private unnamed_addr constant [61 x i8] c"[camera_control] camera control un-locked for unknown camera\00", align 1

; Function Attrs: inlinehint nounwind uwtable
define internal i32 @dt_pthread_mutex_unlock(ptr noundef %0) #4 {
  %2 = alloca ptr, align 8
  store ptr %0, ptr %2, align 8, !tbaa !91
  %3 = load ptr, ptr %2, align 8, !tbaa !91
  %4 = getelementptr inbounds nuw %struct.dt_pthread_mutex_t, ptr %3, i32 0, i32 0
  %5 = call i32 @pthread_mutex_unlock(ptr noundef %4) #10
  ret i32 %5
}

; Function Attrs: inlinehint nounwind uwtable
define internal i32 @dt_pthread_mutex_lock(ptr noundef %0) #4 {
  %2 = alloca ptr, align 8
  store ptr %0, ptr %2, align 8, !tbaa !91
  %3 = load ptr, ptr %2, align 8, !tbaa !91
  %4 = getelementptr inbounds nuw %struct.dt_pthread_mutex_t, ptr %3, i32 0, i32 0
  %5 = call i32 @pthread_mutex_lock(ptr noundef %4) #10
  ret i32 %5
}

; Function Attrs: nounwind uwtable
define internal void @_dispatch_control_status(ptr noundef %0, i32 noundef %1) #0 {
  %3 = alloca ptr, align 8
  %4 = alloca i32, align 4
  %5 = alloca ptr, align 8
  %6 = alloca ptr, align 8
  %7 = alloca ptr, align 8
  store ptr %0, ptr %3, align 8, !tbaa !6
  store i32 %1, ptr %4, align 4, !tbaa !64
  call void @llvm.lifetime.start.p0(i64 8, ptr %5) #10
  %8 = load ptr, ptr %3, align 8, !tbaa !6
  store ptr %8, ptr %5, align 8, !tbaa !6
  %9 = load ptr, ptr %5, align 8, !tbaa !6
  %10 = getelementptr inbounds nuw %struct.dt_camctl_t, ptr %9, i32 0, i32 1
  %11 = call i32 @dt_pthread_mutex_lock(ptr noundef %10)
  call void @llvm.lifetime.start.p0(i64 8, ptr %6) #10
  %12 = load ptr, ptr %5, align 8, !tbaa !6
  %13 = getelementptr inbounds nuw %struct.dt_camctl_t, ptr %12, i32 0, i32 3
  %14 = load ptr, ptr %13, align 8, !tbaa !106
  store ptr %14, ptr %6, align 8, !tbaa !85
  br label %15

15:                                               ; preds = %44, %2
  %16 = load ptr, ptr %6, align 8, !tbaa !85
  %17 = icmp ne ptr %16, null
  br i1 %17, label %19, label %18

18:                                               ; preds = %15
  call void @llvm.lifetime.end.p0(i64 8, ptr %6) #10
  br label %46

19:                                               ; preds = %15
  call void @llvm.lifetime.start.p0(i64 8, ptr %7) #10
  %20 = load ptr, ptr %6, align 8, !tbaa !85
  %21 = getelementptr inbounds nuw %struct._GList, ptr %20, i32 0, i32 0
  %22 = load ptr, ptr %21, align 8, !tbaa !86
  store ptr %22, ptr %7, align 8, !tbaa !104
  %23 = load ptr, ptr %7, align 8, !tbaa !104
  %24 = getelementptr inbounds nuw %struct.dt_camctl_listener_t, ptr %23, i32 0, i32 1
  %25 = load ptr, ptr %24, align 8, !tbaa !131
  %26 = icmp ne ptr %25, null
  br i1 %26, label %27, label %35

27:                                               ; preds = %19
  %28 = load ptr, ptr %7, align 8, !tbaa !104
  %29 = getelementptr inbounds nuw %struct.dt_camctl_listener_t, ptr %28, i32 0, i32 1
  %30 = load ptr, ptr %29, align 8, !tbaa !131
  %31 = load i32, ptr %4, align 4, !tbaa !64
  %32 = load ptr, ptr %7, align 8, !tbaa !104
  %33 = getelementptr inbounds nuw %struct.dt_camctl_listener_t, ptr %32, i32 0, i32 0
  %34 = load ptr, ptr %33, align 8, !tbaa !128
  call void %30(i32 noundef %31, ptr noundef %34)
  br label %35

35:                                               ; preds = %27, %19
  call void @llvm.lifetime.end.p0(i64 8, ptr %7) #10
  br label %36

36:                                               ; preds = %35
  %37 = load ptr, ptr %6, align 8, !tbaa !85
  %38 = icmp ne ptr %37, null
  br i1 %38, label %39, label %43

39:                                               ; preds = %36
  %40 = load ptr, ptr %6, align 8, !tbaa !85
  %41 = getelementptr inbounds nuw %struct._GList, ptr %40, i32 0, i32 1
  %42 = load ptr, ptr %41, align 8, !tbaa !117
  br label %44

43:                                               ; preds = %36
  br label %44

44:                                               ; preds = %43, %39
  %45 = phi ptr [ %42, %39 ], [ null, %43 ]
  store ptr %45, ptr %6, align 8, !tbaa !85
  br label %15

46:                                               ; preds = %18
  %47 = load ptr, ptr %5, align 8, !tbaa !6
  %48 = getelementptr inbounds nuw %struct.dt_camctl_t, ptr %47, i32 0, i32 1
  %49 = call i32 @dt_pthread_mutex_unlock(ptr noundef %48)
  call void @llvm.lifetime.end.p0(i64 8, ptr %5) #10
  ret void
}

; Function Attrs: inlinehint nounwind uwtable
define internal i32 @dt_pthread_mutex_BAD_unlock(ptr noundef %0) #4 {
  %2 = alloca ptr, align 8
  %3 = alloca i32, align 4
  store ptr %0, ptr %2, align 8, !tbaa !91
  call void @llvm.lifetime.start.p0(i64 4, ptr %3) #10
  %4 = load ptr, ptr %2, align 8, !tbaa !91
  %5 = getelementptr inbounds nuw %struct.dt_pthread_mutex_t, ptr %4, i32 0, i32 0
  %6 = call i32 @pthread_mutex_unlock(ptr noundef %5) #10
  store i32 %6, ptr %3, align 4, !tbaa !64
  %7 = load i32, ptr %3, align 4, !tbaa !64
  call void @llvm.lifetime.end.p0(i64 4, ptr %3) #10
  ret i32 %7
}

; Function Attrs: nounwind uwtable
define internal void @_camctl_unlock(ptr noundef %0) #0 {
  %2 = alloca ptr, align 8
  %3 = alloca ptr, align 8
  %4 = alloca ptr, align 8
  store ptr %0, ptr %2, align 8, !tbaa !6
  call void @llvm.lifetime.start.p0(i64 8, ptr %3) #10
  %5 = load ptr, ptr %2, align 8, !tbaa !6
  store ptr %5, ptr %3, align 8, !tbaa !6
  call void @llvm.lifetime.start.p0(i64 8, ptr %4) #10
  %6 = load ptr, ptr %3, align 8, !tbaa !6
  %7 = getelementptr inbounds nuw %struct.dt_camctl_t, ptr %6, i32 0, i32 10
  %8 = load ptr, ptr %7, align 8, !tbaa !11
  store ptr %8, ptr %4, align 8, !tbaa !21
  %9 = load ptr, ptr %3, align 8, !tbaa !6
  %10 = getelementptr inbounds nuw %struct.dt_camctl_t, ptr %9, i32 0, i32 10
  store ptr null, ptr %10, align 8, !tbaa !11
  %11 = load ptr, ptr %3, align 8, !tbaa !6
  %12 = getelementptr inbounds nuw %struct.dt_camctl_t, ptr %11, i32 0, i32 0
  %13 = call i32 @dt_pthread_mutex_BAD_unlock(ptr noundef %12)
  %14 = load ptr, ptr %4, align 8, !tbaa !21
  %15 = icmp ne ptr %14, null
  br i1 %15, label %16, label %33

16:                                               ; preds = %1
  br label %17

17:                                               ; preds = %16
  %18 = load i32, ptr getelementptr inbounds nuw (%struct.darktable_t, ptr @darktable, i32 0, i32 2), align 8, !tbaa !22
  %19 = and i32 32, %18
  %20 = icmp ne i32 %19, 0
  br i1 %20, label %21, label %30

21:                                               ; preds = %17
  %22 = load i32, ptr getelementptr inbounds nuw (%struct.darktable_t, ptr @darktable, i32 0, i32 2), align 8, !tbaa !22
  %23 = xor i32 %22, -1
  %24 = and i32 0, %23
  %25 = icmp ne i32 %24, 0
  br i1 %25, label %30, label %26

26:                                               ; preds = %21
  %27 = load ptr, ptr %4, align 8, !tbaa !21
  %28 = getelementptr inbounds nuw %struct.dt_camera_t, ptr %27, i32 0, i32 0
  %29 = load ptr, ptr %28, align 8, !tbaa !88
  call void (ptr, ...) @dt_print_ext(ptr noundef @.str.78, ptr noundef %29)
  br label %30

30:                                               ; preds = %26, %21, %17
  br label %31

31:                                               ; preds = %30
  br label %32

32:                                               ; preds = %31
  br label %47

33:                                               ; preds = %1
  br label %34

34:                                               ; preds = %33
  %35 = load i32, ptr getelementptr inbounds nuw (%struct.darktable_t, ptr @darktable, i32 0, i32 2), align 8, !tbaa !22
  %36 = and i32 32, %35
  %37 = icmp ne i32 %36, 0
  br i1 %37, label %38, label %44

38:                                               ; preds = %34
  %39 = load i32, ptr getelementptr inbounds nuw (%struct.darktable_t, ptr @darktable, i32 0, i32 2), align 8, !tbaa !22
  %40 = xor i32 %39, -1
  %41 = and i32 0, %40
  %42 = icmp ne i32 %41, 0
  br i1 %42, label %44, label %43

43:                                               ; preds = %38
  call void (ptr, ...) @dt_print_ext(ptr noundef @.str.79)
  br label %44

44:                                               ; preds = %43, %38, %34
  br label %45

45:                                               ; preds = %44
  br label %46

46:                                               ; preds = %45
  br label %47

47:                                               ; preds = %46, %32
  %48 = load ptr, ptr %2, align 8, !tbaa !6
  call void @_dispatch_control_status(ptr noundef %48, i32 noundef 1)
  call void @llvm.lifetime.end.p0(i64 8, ptr %4) #10
  call void @llvm.lifetime.end.p0(i64 8, ptr %3) #10
  ret void
}