; Function Attrs: nounwind uwtable
define internal fastcc void @_camctl_unlock(ptr noundef %0) unnamed_addr #0 {
  %2 = getelementptr inbounds nuw i8, ptr %0, i64 144
  %3 = load ptr, ptr %2, align 8, !tbaa !6
  store ptr null, ptr %2, align 8, !tbaa !6
  %4 = tail call i32 @pthread_mutex_unlock(ptr noundef %0) #15
  %.not = icmp eq ptr %3, null
  %5 = load i32, ptr getelementptr inbounds nuw (i8, ptr @darktable, i64 8), align 8, !tbaa !19
  %6 = and i32 %5, 32
  %.not7 = icmp eq i32 %6, 0
  br i1 %.not, label %10, label %7

7:                                                ; preds = %1
  br i1 %.not7, label %12, label %8

8:                                                ; preds = %7
  %9 = load ptr, ptr %3, align 8, !tbaa !80
  tail call void (ptr, ...) @dt_print_ext(ptr noundef nonnull @.str.78, ptr noundef %9) #15
  br label %12

10:                                               ; preds = %1
  br i1 %.not7, label %12, label %11

11:                                               ; preds = %10
  tail call void (ptr, ...) @dt_print_ext(ptr noundef nonnull @.str.79) #15
  br label %12

12:                                               ; preds = %10, %11, %7, %8
  %13 = getelementptr inbounds nuw i8, ptr %0, i64 40
  %14 = tail call i32 @pthread_mutex_lock(ptr noundef nonnull %13) #15
  %15 = getelementptr inbounds nuw i8, ptr %0, i64 88
  %.013.i = load ptr, ptr %15, align 8, !tbaa !83
  %.not14.i = icmp eq ptr %.013.i, null
  br i1 %.not14.i, label %_dispatch_control_status.exit, label %.lr.ph.i

.lr.ph.i:                                         ; preds = %12, %21
  %.015.i = phi ptr [ %.0.i, %21 ], [ %.013.i, %12 ]
  %16 = load ptr, ptr %.015.i, align 8, !tbaa !78
  %17 = getelementptr inbounds nuw i8, ptr %16, i64 8
  %18 = load ptr, ptr %17, align 8, !tbaa !126
  %.not12.i = icmp eq ptr %18, null
  br i1 %.not12.i, label %21, label %19

19:                                               ; preds = %.lr.ph.i
  %20 = load ptr, ptr %16, align 8, !tbaa !86
  tail call void %18(i32 noundef 1, ptr noundef %20) #15
  br label %21

21:                                               ; preds = %19, %.lr.ph.i
  %22 = getelementptr inbounds nuw i8, ptr %.015.i, i64 8
  %.0.i = load ptr, ptr %22, align 8, !tbaa !83
  %.not.i = icmp eq ptr %.0.i, null
  br i1 %.not.i, label %_dispatch_control_status.exit, label %.lr.ph.i

_dispatch_control_status.exit:                    ; preds = %21, %12
  %23 = tail call i32 @pthread_mutex_unlock(ptr noundef nonnull %13) #15
  ret void
}